target datalayout = "e-m:e-p270:32:32-p271:32:32-p272:64:64-i64:64-i128:128-f80:128-n8:16:32:64-S128"
target triple = "x86_64-pc-linux-gnu"

%"class.icu_77::UObject" = type { ptr }
%"class.icu_77::DateFormat" = type { %"class.icu_77::Format", ptr, ptr, %"class.icu_77::EnumSet", i32 }
%"class.icu_77::Format" = type { %"class.icu_77::UObject", ptr, ptr }
%"class.icu_77::EnumSet" = type { i32 }

; Function Attrs: inlinehint mustprogress nounwind uwtable
define internal noundef signext i8 @_ZL9U_FAILURE10UErrorCode(i32 noundef %0) #2 {
  %2 = alloca i32, align 4
  store i32 %0, ptr %2, align 4, !tbaa !15
  %3 = load i32, ptr %2, align 4, !tbaa !15
  %4 = icmp sgt i32 %3, 0
  %5 = zext i1 %4 to i8
  ret i8 %5
}

; Function Attrs: mustprogress uwtable
define noundef ptr @_ZN6icu_7716SimpleDateFormat18initializeCalendarEPNS_8TimeZoneERKNS_6LocaleER10UErrorCode(ptr noundef nonnull align 8 dereferenceable(528) %0, ptr noundef %1, ptr noundef nonnull align 8 dereferenceable(217) %2, ptr noundef nonnull align 4 dereferenceable(4) %3) #1 align 2 {
  %5 = alloca ptr, align 8
  %6 = alloca ptr, align 8
  %7 = alloca ptr, align 8
  %8 = alloca ptr, align 8
  store ptr %0, ptr %5, align 8, !tbaa !23
  store ptr %1, ptr %6, align 8, !tbaa !89
  store ptr %2, ptr %7, align 8, !tbaa !77
  store ptr %3, ptr %8, align 8, !tbaa !22
  %9 = load ptr, ptr %5, align 8
  %10 = load ptr, ptr %8, align 8, !tbaa !22
  %11 = load i32, ptr %10, align 4, !tbaa !15
  %12 = call noundef signext i8 @_ZL9U_FAILURE10UErrorCode(i32 noundef %11)
  %13 = icmp ne i8 %12, 0
  br i1 %13, label %28, label %14

14:                                               ; preds = %4
  %15 = load ptr, ptr %6, align 8, !tbaa !89
  %16 = icmp ne ptr %15, null
  br i1 %16, label %17, label %19

17:                                               ; preds = %14
  %18 = load ptr, ptr %6, align 8, !tbaa !89
  br label %22

19:                                               ; preds = %14
  %20 = load ptr, ptr %7, align 8, !tbaa !77
  %21 = call noundef ptr @_ZN6icu_778TimeZone18forLocaleOrDefaultERKNS_6LocaleE(ptr noundef nonnull align 8 dereferenceable(217) %20)
  br label %22

22:                                               ; preds = %19, %17
  %23 = phi ptr [ %18, %17 ], [ %21, %19 ]
  %24 = load ptr, ptr %7, align 8, !tbaa !77
  %25 = load ptr, ptr %8, align 8, !tbaa !22
  %26 = call noundef ptr @_ZN6icu_778Calendar14createInstanceEPNS_8TimeZoneERKNS_6LocaleER10UErrorCode(ptr noundef %23, ptr noundef nonnull align 8 dereferenceable(217) %24, ptr noundef nonnull align 4 dereferenceable(4) %25)
  %27 = getelementptr inbounds nuw %"class.icu_77::DateFormat", ptr %9, i32 0, i32 1
  store ptr %26, ptr %27, align 8, !tbaa !79
  br label %28

28:                                               ; preds = %22, %4
  %29 = getelementptr inbounds nuw %"class.icu_77::DateFormat", ptr %9, i32 0, i32 1
  %30 = load ptr, ptr %29, align 8, !tbaa !79
  ret ptr %30
}