; Function Attrs: mustprogress uwtable
define noundef ptr @_ZN6icu_7716SimpleDateFormat18initializeCalendarEPNS_8TimeZoneERKNS_6LocaleER10UErrorCode(ptr noundef nonnull align 8 captures(none) dereferenceable(528) %0, ptr noundef %1, ptr noundef nonnull align 8 dereferenceable(217) %2, ptr noundef nonnull align 4 dereferenceable(4) %3) local_unnamed_addr #1 align 2 {
  %5 = load i32, ptr %3, align 4, !tbaa !13
  %6 = icmp slt i32 %5, 1
  br i1 %6, label %7, label %._crit_edge

._crit_edge:                                      ; preds = %4
  %.phi.trans.insert = getelementptr inbounds nuw i8, ptr %0, i64 24
  %.pre = load ptr, ptr %.phi.trans.insert, align 8, !tbaa !52
  br label %14

7:                                                ; preds = %4
  %.not7 = icmp eq ptr %1, null
  br i1 %.not7, label %8, label %10

8:                                                ; preds = %7
  %9 = tail call noundef ptr @_ZN6icu_778TimeZone18forLocaleOrDefaultERKNS_6LocaleE(ptr noundef nonnull align 8 dereferenceable(217) %2)
  br label %10

10:                                               ; preds = %7, %8
  %11 = phi ptr [ %9, %8 ], [ %1, %7 ]
  %12 = tail call noundef ptr @_ZN6icu_778Calendar14createInstanceEPNS_8TimeZoneERKNS_6LocaleER10UErrorCode(ptr noundef %11, ptr noundef nonnull align 8 dereferenceable(217) %2, ptr noundef nonnull align 4 dereferenceable(4) %3)
  %13 = getelementptr inbounds nuw i8, ptr %0, i64 24
  store ptr %12, ptr %13, align 8, !tbaa !52
  br label %14

14:                                               ; preds = %._crit_edge, %10
  %15 = phi ptr [ %.pre, %._crit_edge ], [ %12, %10 ]
  ret ptr %15
}